; Function Attrs: mustprogress uwtable
define hidden noundef zeroext i1 @_ZNK2lp10int_solver8at_lowerEj(ptr noundef nonnull readonly align 8 captures(none) dereferenceable(32) %0, i32 noundef %1) local_unnamed_addr #4 align 2 {
  %3 = getelementptr inbounds nuw i8, ptr %0, i64 8
  %4 = load ptr, ptr %3, align 8, !tbaa !202
  %5 = getelementptr inbounds nuw i8, ptr %4, i64 608
  %6 = load ptr, ptr %5, align 8, !tbaa !334
  %7 = load ptr, ptr %6, align 8, !tbaa !283
  %8 = zext i32 %1 to i64
  %9 = getelementptr inbounds nuw i32, ptr %7, i64 %8
  %10 = load i32, ptr %9, align 4, !tbaa !284
  switch i32 %10, label %20 [
    i32 4, label %11
    i32 3, label %11
    i32 1, label %11
  ]

11:                                               ; preds = %2, %2, %2
  %12 = getelementptr inbounds nuw i8, ptr %4, i64 616
  %13 = load ptr, ptr %12, align 8, !tbaa !304
  %14 = load ptr, ptr %13, align 8, !tbaa !244
  %15 = getelementptr inbounds nuw %"struct.lp::numeric_pair", ptr %14, i64 %8
  %16 = getelementptr inbounds nuw i8, ptr %4, i64 48
  %17 = load ptr, ptr %16, align 8, !tbaa !244
  %18 = getelementptr inbounds nuw %"struct.lp::numeric_pair", ptr %17, i64 %8
  %19 = tail call noundef zeroext i1 @_ZNK2lp12numeric_pairI8rationalEeqERKS2_(ptr noundef nonnull align 8 dereferenceable(64) %15, ptr noundef nonnull align 8 dereferenceable(64) %18)
  br label %20

20:                                               ; preds = %2, %11
  %.0 = phi i1 [ %19, %11 ], [ false, %2 ]
  ret i1 %.0
}